; Function Attrs: mustprogress nounwind uwtable
define dso_local void @_ZN4llvm16MCObjectStreamer21emitDwarfLocDirectiveEjjjjjjNS_9StringRefE(ptr noundef nonnull align 8 dereferenceable(424) %0, i32 noundef %1, i32 noundef %2, i32 noundef %3, i32 noundef %4, i32 noundef %5, i32 noundef %6, ptr noundef readonly byval(%"class.llvm::StringRef") align 8 captures(none) %7) unnamed_addr #0 align 2 {
  %9 = getelementptr inbounds nuw i8, ptr %0, i64 280
  %10 = load ptr, ptr %9, align 8
  %11 = getelementptr inbounds nuw i8, ptr %10, i64 8
  %12 = load ptr, ptr %11, align 8
  tail call void @_ZN4llvm16MCDwarfLineEntry4makeEPNS_10MCStreamerEPNS_9MCSectionE(ptr noundef nonnull %0, ptr noundef %12) #20
  tail call void @_ZN4llvm10MCStreamer21emitDwarfLocDirectiveEjjjjjjNS_9StringRefE(ptr noundef nonnull align 8 dereferenceable(288) %0, i32 noundef %1, i32 noundef %2, i32 noundef %3, i32 noundef %4, i32 noundef %5, i32 noundef %6, ptr noundef nonnull byval(%"class.llvm::StringRef") align 8 %7) #20
  ret void
}